; Function Attrs: nounwind uwtable
define internal noundef i32 @_on_status(ptr readnone captures(none) %0, ptr readnone captures(none) %1, i64 %2) #0 {
  %4 = load i64, ptr getelementptr inbounds nuw (i8, ptr @slurm_conf, i64 320), align 8
  %5 = and i64 %4, 1024
  %.not = icmp eq i64 %5, 0
  br i1 %.not, label %10, label %6

6:                                                ; preds = %3
  %7 = tail call i32 @get_log_level() #8
  %8 = icmp sgt i32 %7, 3
  br i1 %8, label %9, label %10

9:                                                ; preds = %6
  tail call void (i32, ptr, ...) @log_var(i32 noundef 4, ptr noundef nonnull @.str.20, ptr noundef nonnull @__func__._on_status) #8
  br label %10

10:                                               ; preds = %3, %6, %9
  ret i32 0
}